; Function Attrs: mustprogress nounwind uwtable
define hidden void @_ZN16MonitorEnterStub9emit_codeEP13LIR_Assembler(ptr noundef nonnull align 8 dereferenceable(112) %0, ptr noundef %1) unnamed_addr #0 align 2 {
  %3 = alloca %class.AddressLiteral, align 8
  %4 = alloca %class.RuntimeAddress, align 8
  %5 = load ptr, ptr %1, align 8
  %6 = getelementptr inbounds i8, ptr %0, i64 8
  tail call void @_ZN17AbstractAssembler4bindER5Label(ptr noundef nonnull align 8 dereferenceable(24) %5, ptr noundef nonnull align 8 dereferenceable(33) %6) #6
  %7 = getelementptr inbounds i8, ptr %0, i64 88
  %8 = tail call i32 @_ZNK7LIR_Opr11as_registerEv(ptr noundef nonnull align 8 dereferenceable(8) %7) #6
  tail call void @_ZN13LIR_Assembler15store_parameterE8Registeri(ptr noundef nonnull align 8 dereferenceable(96) %1, i32 %8, i32 noundef 1) #6
  %9 = getelementptr inbounds i8, ptr %0, i64 96
  %10 = tail call i32 @_ZNK7LIR_Opr11as_registerEv(ptr noundef nonnull align 8 dereferenceable(8) %9) #6
  tail call void @_ZN13LIR_Assembler15store_parameterE8Registeri(ptr noundef nonnull align 8 dereferenceable(96) %1, i32 %10, i32 noundef 0) #6
  %11 = getelementptr inbounds i8, ptr %1, i64 16
  %12 = load ptr, ptr %11, align 8
  %13 = getelementptr inbounds i8, ptr %12, i64 97
  %14 = load i8, ptr %13, align 1
  %15 = trunc i8 %14 to i1
  %. = select i1 %15, i32 21, i32 22
  %16 = load ptr, ptr %1, align 8
  %17 = tail call noundef ptr @_ZN8Runtime18blob_forENS_6StubIDE(i32 noundef %.) #6
  %18 = getelementptr inbounds i8, ptr %17, i64 36
  %19 = load i32, ptr %18, align 4
  %20 = sext i32 %19 to i64
  %21 = getelementptr inbounds i8, ptr %17, i64 %20
  call void @_ZN14AddressLiteralC2EPhN9relocInfo9relocTypeE(ptr noundef nonnull align 8 dereferenceable(56) %4, ptr noundef %21, i32 noundef 6) #6
  %22 = load ptr, ptr %4, align 8
  %23 = getelementptr inbounds i8, ptr %22, i64 16
  %24 = load ptr, ptr %23, align 8
  call void %24(ptr noundef nonnull align 8 dereferenceable(20) %4, ptr noundef nonnull align 8 dereferenceable(40) %3) #6
  %25 = getelementptr inbounds i8, ptr %3, i64 40
  %26 = getelementptr inbounds i8, ptr %4, i64 40
  call void @llvm.memcpy.p0.p0.i64(ptr noundef nonnull align 8 dereferenceable(16) %25, ptr noundef nonnull align 8 dereferenceable(16) %26, i64 16, i1 false)
  call void @_ZN14MacroAssembler4callE14AddressLiteral8Register(ptr noundef nonnull align 8 dereferenceable(40) %16, ptr noundef nonnull %3, i32 0) #6
  %27 = getelementptr inbounds i8, ptr %0, i64 104
  %28 = load ptr, ptr %27, align 8
  %29 = call noundef i32 @_ZNK13LIR_Assembler11code_offsetEv(ptr noundef nonnull align 8 dereferenceable(96) %1) #6
  call void @_ZN13LIR_Assembler13add_call_infoEiP12CodeEmitInfo(ptr noundef nonnull align 8 dereferenceable(96) %1, i32 noundef %29, ptr noundef %28) #6
  %30 = load ptr, ptr %27, align 8
  call void @_ZN13LIR_Assembler14verify_oop_mapEP12CodeEmitInfo(ptr noundef nonnull align 8 dereferenceable(96) %1, ptr noundef %30) #6
  %31 = load ptr, ptr %1, align 8
  %32 = getelementptr inbounds i8, ptr %0, i64 48
  call void @_ZN9Assembler3jmpER5Labelb(ptr noundef nonnull align 8 dereferenceable(40) %31, ptr noundef nonnull align 8 dereferenceable(33) %32, i1 noundef zeroext true) #6
  ret void
}